; Function Attrs: nounwind sspstrong uwtable
define dso_local void @tcg_gen_mulsu2_i32(ptr noundef %0, ptr noundef %1, ptr noundef %2, ptr noundef %3) local_unnamed_addr #2 {
  %5 = tail call ptr @tcg_temp_ebb_new_i64() #6
  %6 = tail call ptr @tcg_temp_ebb_new_i64() #6
  %7 = tail call align 8 ptr @llvm.threadlocal.address.p0(ptr align 8 @tcg_ctx)
  %8 = load ptr, ptr %7, align 8
  %9 = ptrtoint ptr %5 to i64
  %10 = getelementptr inbounds nuw i8, ptr %8, i64 %9
  %11 = ptrtoint ptr %10 to i64
  %12 = ptrtoint ptr %2 to i64
  %13 = getelementptr inbounds nuw i8, ptr %8, i64 %12
  %14 = ptrtoint ptr %13 to i64
  %15 = tail call ptr @tcg_gen_op2(i32 noundef 99, i32 noundef 1, i64 noundef %11, i64 noundef %14)
  %16 = load ptr, ptr %7, align 8
  %17 = ptrtoint ptr %6 to i64
  %18 = getelementptr inbounds nuw i8, ptr %16, i64 %17
  %19 = ptrtoint ptr %18 to i64
  %20 = ptrtoint ptr %3 to i64
  %21 = getelementptr inbounds nuw i8, ptr %16, i64 %20
  %22 = ptrtoint ptr %21 to i64
  %23 = tail call ptr @tcg_gen_op2(i32 noundef 100, i32 noundef 1, i64 noundef %19, i64 noundef %22)
  %24 = load ptr, ptr %7, align 8
  %25 = getelementptr inbounds nuw i8, ptr %24, i64 %9
  %26 = ptrtoint ptr %25 to i64
  %27 = getelementptr inbounds nuw i8, ptr %24, i64 %17
  %28 = ptrtoint ptr %27 to i64
  %29 = tail call ptr @tcg_gen_op3(i32 noundef 80, i32 noundef 1, i64 noundef %26, i64 noundef %26, i64 noundef %28)
  %30 = load ptr, ptr %7, align 8
  %31 = ptrtoint ptr %0 to i64
  %32 = getelementptr inbounds nuw i8, ptr %30, i64 %31
  %33 = ptrtoint ptr %32 to i64
  %34 = getelementptr inbounds nuw i8, ptr %30, i64 %9
  %35 = ptrtoint ptr %34 to i64
  %36 = tail call ptr @tcg_gen_op2(i32 noundef 101, i32 noundef 0, i64 noundef %33, i64 noundef %35)
  %37 = load ptr, ptr %7, align 8
  %38 = ptrtoint ptr %1 to i64
  %39 = getelementptr inbounds nuw i8, ptr %37, i64 %38
  %40 = ptrtoint ptr %39 to i64
  %41 = getelementptr inbounds nuw i8, ptr %37, i64 %9
  %42 = ptrtoint ptr %41 to i64
  %43 = tail call ptr @tcg_gen_op2(i32 noundef 102, i32 noundef 0, i64 noundef %40, i64 noundef %42)
  tail call void @tcg_temp_free_i64(ptr noundef %5) #6
  tail call void @tcg_temp_free_i64(ptr noundef %6) #6
  ret void
}